target datalayout = "e-m:e-p270:32:32-p271:32:32-p272:64:64-i64:64-i128:128-f80:128-n8:16:32:64-S128"
target triple = "x86_64-pc-linux-gnu"

@rb_eTypeError = external global i64, align 8
@.str.93 = private unnamed_addr constant [36 x i8] c"unexpected divmod result: into %li\0B\00", align 1

; Function Attrs: inlinehint nounwind sspstrong willreturn memory(none) uwtable
define internal i64 @RB_INT2FIX(i64 noundef %0) #5 {
  %2 = alloca i64, align 8
  %3 = alloca i64, align 8
  %4 = alloca i64, align 8
  %5 = alloca i64, align 8
  %6 = alloca i64, align 8
  %7 = alloca i64, align 8
  store i64 %0, ptr %2, align 8, !tbaa !11
  call void @llvm.lifetime.start.p0(i64 8, ptr %3) #22
  %8 = load i64, ptr %2, align 8, !tbaa !11
  store i64 %8, ptr %3, align 8, !tbaa !11
  call void @llvm.lifetime.start.p0(i64 8, ptr %4) #22
  %9 = load i64, ptr %3, align 8, !tbaa !11
  %10 = shl i64 %9, 1
  %11 = add i64 %10, 1
  store i64 %11, ptr %4, align 8, !tbaa !11
  call void @llvm.lifetime.start.p0(i64 8, ptr %5) #22
  %12 = load i64, ptr %4, align 8, !tbaa !11
  store i64 %12, ptr %5, align 8, !tbaa !11
  call void @llvm.lifetime.start.p0(i64 8, ptr %6) #22
  %13 = load i64, ptr %5, align 8, !tbaa !11
  store i64 %13, ptr %6, align 8, !tbaa !11
  call void @llvm.lifetime.start.p0(i64 8, ptr %7) #22
  %14 = load i64, ptr %6, align 8, !tbaa !11
  store i64 %14, ptr %7, align 8, !tbaa !11
  %15 = load i64, ptr %7, align 8, !tbaa !11
  call void @llvm.lifetime.end.p0(i64 8, ptr %7) #22
  call void @llvm.lifetime.end.p0(i64 8, ptr %6) #22
  call void @llvm.lifetime.end.p0(i64 8, ptr %5) #22
  call void @llvm.lifetime.end.p0(i64 8, ptr %4) #22
  call void @llvm.lifetime.end.p0(i64 8, ptr %3) #22
  ret i64 %15
}

; Function Attrs: inlinehint nounwind sspstrong uwtable
define internal i64 @rb_long2num_inline(i64 noundef %0) #4 {
  %2 = alloca i64, align 8
  %3 = alloca i64, align 8
  store i64 %0, ptr %3, align 8, !tbaa !11
  %4 = load i64, ptr %3, align 8, !tbaa !11
  %5 = icmp slt i64 %4, 4611686018427387904
  br i1 %5, label %6, label %12

6:                                                ; preds = %1
  %7 = load i64, ptr %3, align 8, !tbaa !11
  %8 = icmp sge i64 %7, -4611686018427387904
  br i1 %8, label %9, label %12

9:                                                ; preds = %6
  %10 = load i64, ptr %3, align 8, !tbaa !11
  %11 = call i64 @RB_INT2FIX(i64 noundef %10) #24
  store i64 %11, ptr %2, align 8
  br label %15

12:                                               ; preds = %6, %1
  %13 = load i64, ptr %3, align 8, !tbaa !11
  %14 = call i64 @rb_int2big(i64 noundef %13)
  store i64 %14, ptr %2, align 8
  br label %15

15:                                               ; preds = %12, %9
  %16 = load i64, ptr %2, align 8
  ret i64 %16
}

; Function Attrs: inlinehint nounwind sspstrong willreturn memory(none) uwtable
define internal i64 @rbimpl_fix2long_by_idiv(i64 noundef %0) #5 {
  %2 = alloca i64, align 8
  %3 = alloca i64, align 8
  %4 = alloca i64, align 8
  %5 = alloca i64, align 8
  store i64 %0, ptr %2, align 8, !tbaa !11
  call void @llvm.lifetime.start.p0(i64 8, ptr %3) #22
  %6 = load i64, ptr %2, align 8, !tbaa !11
  %7 = sub i64 %6, 1
  store i64 %7, ptr %3, align 8, !tbaa !11
  call void @llvm.lifetime.start.p0(i64 8, ptr %4) #22
  %8 = load i64, ptr %3, align 8, !tbaa !11
  %9 = sdiv i64 %8, 2
  store i64 %9, ptr %4, align 8, !tbaa !11
  call void @llvm.lifetime.start.p0(i64 8, ptr %5) #22
  %10 = load i64, ptr %4, align 8, !tbaa !11
  store i64 %10, ptr %5, align 8, !tbaa !11
  %11 = load i64, ptr %5, align 8, !tbaa !11
  call void @llvm.lifetime.end.p0(i64 8, ptr %5) #22
  call void @llvm.lifetime.end.p0(i64 8, ptr %4) #22
  call void @llvm.lifetime.end.p0(i64 8, ptr %3) #22
  ret i64 %11
}

; Function Attrs: inlinehint nounwind sspstrong willreturn memory(none) uwtable
define internal i64 @rbimpl_fix2long_by_shift(i64 noundef %0) #5 {
  %2 = alloca i64, align 8
  %3 = alloca i64, align 8
  %4 = alloca i64, align 8
  %5 = alloca i64, align 8
  store i64 %0, ptr %2, align 8, !tbaa !11
  call void @llvm.lifetime.start.p0(i64 8, ptr %3) #22
  %6 = load i64, ptr %2, align 8, !tbaa !11
  store i64 %6, ptr %3, align 8, !tbaa !11
  call void @llvm.lifetime.start.p0(i64 8, ptr %4) #22
  %7 = load i64, ptr %3, align 8, !tbaa !11
  %8 = ashr i64 %7, 1
  store i64 %8, ptr %4, align 8, !tbaa !11
  call void @llvm.lifetime.start.p0(i64 8, ptr %5) #22
  %9 = load i64, ptr %4, align 8, !tbaa !11
  store i64 %9, ptr %5, align 8, !tbaa !11
  %10 = load i64, ptr %5, align 8, !tbaa !11
  call void @llvm.lifetime.end.p0(i64 8, ptr %5) #22
  call void @llvm.lifetime.end.p0(i64 8, ptr %4) #22
  call void @llvm.lifetime.end.p0(i64 8, ptr %3) #22
  ret i64 %10
}

; Function Attrs: inlinehint nounwind sspstrong willreturn memory(none) uwtable
define internal zeroext i1 @rbimpl_right_shift_is_arithmetic_p() #5 {
  ret i1 true
}

; Function Attrs: inlinehint nounwind sspstrong willreturn memory(none) uwtable
define internal zeroext i1 @RB_NIL_P(i64 noundef %0) #5 {
  %2 = alloca i64, align 8
  store i64 %0, ptr %2, align 8, !tbaa !11
  %3 = load i64, ptr %2, align 8, !tbaa !11
  %4 = icmp eq i64 %3, 4
  ret i1 %4
}

; Function Attrs: inlinehint nounwind sspstrong uwtable
define internal void @rb_fix_divmod_fix(i64 noundef %0, i64 noundef %1, ptr noundef %2, ptr noundef %3) #4 {
  %5 = alloca i64, align 8
  %6 = alloca i64, align 8
  %7 = alloca ptr, align 8
  %8 = alloca ptr, align 8
  %9 = alloca i64, align 8
  %10 = alloca i64, align 8
  %11 = alloca i64, align 8
  %12 = alloca i64, align 8
  %13 = alloca i32, align 4
  store i64 %0, ptr %5, align 8, !tbaa !11
  store i64 %1, ptr %6, align 8, !tbaa !11
  store ptr %2, ptr %7, align 8, !tbaa !16
  store ptr %3, ptr %8, align 8, !tbaa !16
  call void @llvm.lifetime.start.p0(i64 8, ptr %9) #22
  %14 = load i64, ptr %5, align 8, !tbaa !11
  %15 = call i64 @rb_fix2long(i64 noundef %14) #24
  store i64 %15, ptr %9, align 8, !tbaa !11
  call void @llvm.lifetime.start.p0(i64 8, ptr %10) #22
  %16 = load i64, ptr %6, align 8, !tbaa !11
  %17 = call i64 @rb_fix2long(i64 noundef %16) #24
  store i64 %17, ptr %10, align 8, !tbaa !11
  call void @llvm.lifetime.start.p0(i64 8, ptr %11) #22
  call void @llvm.lifetime.start.p0(i64 8, ptr %12) #22
  %18 = load i64, ptr %9, align 8, !tbaa !11
  %19 = icmp eq i64 %18, -4611686018427387904
  br i1 %19, label %20, label %36

20:                                               ; preds = %4
  %21 = load i64, ptr %10, align 8, !tbaa !11
  %22 = icmp eq i64 %21, -1
  br i1 %22, label %23, label %36

23:                                               ; preds = %20
  %24 = load ptr, ptr %7, align 8, !tbaa !16
  %25 = icmp ne ptr %24, null
  br i1 %25, label %26, label %29

26:                                               ; preds = %23
  %27 = call i64 @rb_long2num_inline(i64 noundef 4611686018427387904)
  %28 = load ptr, ptr %7, align 8, !tbaa !16
  store i64 %27, ptr %28, align 8, !tbaa !11
  br label %29

29:                                               ; preds = %26, %23
  %30 = load ptr, ptr %8, align 8, !tbaa !16
  %31 = icmp ne ptr %30, null
  br i1 %31, label %32, label %35

32:                                               ; preds = %29
  %33 = call i64 @RB_INT2FIX(i64 noundef 0) #24
  %34 = load ptr, ptr %8, align 8, !tbaa !16
  store i64 %33, ptr %34, align 8, !tbaa !11
  br label %35

35:                                               ; preds = %32, %29
  store i32 1, ptr %13, align 4
  br label %72

36:                                               ; preds = %20, %4
  %37 = load i64, ptr %9, align 8, !tbaa !11
  %38 = load i64, ptr %10, align 8, !tbaa !11
  %39 = sdiv i64 %37, %38
  store i64 %39, ptr %11, align 8, !tbaa !11
  %40 = load i64, ptr %9, align 8, !tbaa !11
  %41 = load i64, ptr %10, align 8, !tbaa !11
  %42 = srem i64 %40, %41
  store i64 %42, ptr %12, align 8, !tbaa !11
  %43 = load i64, ptr %10, align 8, !tbaa !11
  %44 = icmp sgt i64 %43, 0
  br i1 %44, label %45, label %48

45:                                               ; preds = %36
  %46 = load i64, ptr %12, align 8, !tbaa !11
  %47 = icmp slt i64 %46, 0
  br i1 %47, label %51, label %57

48:                                               ; preds = %36
  %49 = load i64, ptr %12, align 8, !tbaa !11
  %50 = icmp sgt i64 %49, 0
  br i1 %50, label %51, label %57

51:                                               ; preds = %48, %45
  %52 = load i64, ptr %10, align 8, !tbaa !11
  %53 = load i64, ptr %12, align 8, !tbaa !11
  %54 = add i64 %53, %52
  store i64 %54, ptr %12, align 8, !tbaa !11
  %55 = load i64, ptr %11, align 8, !tbaa !11
  %56 = sub i64 %55, 1
  store i64 %56, ptr %11, align 8, !tbaa !11
  br label %57

57:                                               ; preds = %51, %48, %45
  %58 = load ptr, ptr %7, align 8, !tbaa !16
  %59 = icmp ne ptr %58, null
  br i1 %59, label %60, label %64

60:                                               ; preds = %57
  %61 = load i64, ptr %11, align 8, !tbaa !11
  %62 = call i64 @RB_INT2FIX(i64 noundef %61) #24
  %63 = load ptr, ptr %7, align 8, !tbaa !16
  store i64 %62, ptr %63, align 8, !tbaa !11
  br label %64

64:                                               ; preds = %60, %57
  %65 = load ptr, ptr %8, align 8, !tbaa !16
  %66 = icmp ne ptr %65, null
  br i1 %66, label %67, label %71

67:                                               ; preds = %64
  %68 = load i64, ptr %12, align 8, !tbaa !11
  %69 = call i64 @RB_INT2FIX(i64 noundef %68) #24
  %70 = load ptr, ptr %8, align 8, !tbaa !16
  store i64 %69, ptr %70, align 8, !tbaa !11
  br label %71

71:                                               ; preds = %67, %64
  store i32 0, ptr %13, align 4
  br label %72

72:                                               ; preds = %71, %35
  call void @llvm.lifetime.end.p0(i64 8, ptr %12) #22
  call void @llvm.lifetime.end.p0(i64 8, ptr %11) #22
  call void @llvm.lifetime.end.p0(i64 8, ptr %10) #22
  call void @llvm.lifetime.end.p0(i64 8, ptr %9) #22
  %73 = load i32, ptr %13, align 4
  switch i32 %73, label %75 [
    i32 0, label %74
    i32 1, label %74
  ]

74:                                               ; preds = %72, %72
  ret void

75:                                               ; preds = %72
  unreachable
}

; Function Attrs: inlinehint nounwind sspstrong willreturn memory(none) uwtable
define internal i64 @rb_fix2long(i64 noundef %0) #5 {
  %2 = alloca i64, align 8
  %3 = alloca i64, align 8
  store i64 %0, ptr %3, align 8, !tbaa !11
  %4 = call zeroext i1 @rbimpl_right_shift_is_arithmetic_p() #24
  br i1 %4, label %5, label %8

5:                                                ; preds = %1
  %6 = load i64, ptr %3, align 8, !tbaa !11
  %7 = call i64 @rbimpl_fix2long_by_shift(i64 noundef %6) #24
  store i64 %7, ptr %2, align 8
  br label %11

8:                                                ; preds = %1
  %9 = load i64, ptr %3, align 8, !tbaa !11
  %10 = call i64 @rbimpl_fix2long_by_idiv(i64 noundef %9) #24
  store i64 %10, ptr %2, align 8
  br label %11

11:                                               ; preds = %8, %5
  %12 = load i64, ptr %2, align 8
  ret i64 %12
}

; Function Attrs: inlinehint nounwind sspstrong willreturn memory(none) uwtable
define internal zeroext i1 @RB_FIXNUM_P(i64 noundef %0) #5 {
  %2 = alloca i64, align 8
  store i64 %0, ptr %2, align 8, !tbaa !11
  %3 = load i64, ptr %2, align 8, !tbaa !11
  %4 = and i64 %3, 1
  %5 = icmp ne i64 %4, 0
  ret i1 %5
}

; Function Attrs: nounwind sspstrong uwtable
define internal void @divmodv(i64 noundef %0, i64 noundef %1, ptr noundef %2, ptr noundef %3) #0 {
  %5 = alloca i64, align 8
  %6 = alloca i64, align 8
  %7 = alloca ptr, align 8
  %8 = alloca ptr, align 8
  %9 = alloca i64, align 8
  %10 = alloca i64, align 8
  %11 = alloca i32, align 4
  store i64 %0, ptr %5, align 8, !tbaa !11
  store i64 %1, ptr %6, align 8, !tbaa !11
  store ptr %2, ptr %7, align 8, !tbaa !16
  store ptr %3, ptr %8, align 8, !tbaa !16
  call void @llvm.lifetime.start.p0(i64 8, ptr %9) #22
  call void @llvm.lifetime.start.p0(i64 8, ptr %10) #22
  %12 = load i64, ptr %6, align 8, !tbaa !11
  %13 = call zeroext i1 @RB_FIXNUM_P(i64 noundef %12) #24
  br i1 %13, label %14, label %28

14:                                               ; preds = %4
  %15 = load i64, ptr %6, align 8, !tbaa !11
  %16 = call i64 @rb_fix2long(i64 noundef %15) #24
  %17 = icmp eq i64 %16, 0
  br i1 %17, label %18, label %19

18:                                               ; preds = %14
  call void @rb_num_zerodiv() #27
  unreachable

19:                                               ; preds = %14
  %20 = load i64, ptr %5, align 8, !tbaa !11
  %21 = call zeroext i1 @RB_FIXNUM_P(i64 noundef %20) #24
  br i1 %21, label %22, label %27

22:                                               ; preds = %19
  %23 = load i64, ptr %5, align 8, !tbaa !11
  %24 = load i64, ptr %6, align 8, !tbaa !11
  %25 = load ptr, ptr %7, align 8, !tbaa !16
  %26 = load ptr, ptr %8, align 8, !tbaa !16
  call void @rb_fix_divmod_fix(i64 noundef %23, i64 noundef %24, ptr noundef %25, ptr noundef %26)
  store i32 1, ptr %11, align 4
  br label %47

27:                                               ; preds = %19
  br label %28

28:                                               ; preds = %27, %4
  %29 = load i64, ptr %5, align 8, !tbaa !11
  %30 = load i64, ptr %6, align 8, !tbaa !11
  %31 = call i64 (i64, i64, i32, ...) @rb_funcall(i64 noundef %29, i64 noundef 3585, i32 noundef 1, i64 noundef %30)
  store i64 %31, ptr %9, align 8, !tbaa !11
  %32 = load i64, ptr %9, align 8, !tbaa !11
  %33 = call i64 @rb_check_array_type(i64 noundef %32)
  store i64 %33, ptr %10, align 8, !tbaa !11
  %34 = load i64, ptr %10, align 8, !tbaa !11
  %35 = call zeroext i1 @RB_NIL_P(i64 noundef %34) #24
  br i1 %35, label %36, label %40

36:                                               ; preds = %28
  %37 = load i64, ptr @rb_eTypeError, align 8, !tbaa !11
  %38 = load i64, ptr %9, align 8, !tbaa !11
  %39 = call i64 @rb_obj_class(i64 noundef %38)
  call void (i64, ptr, ...) @rb_raise(i64 noundef %37, ptr noundef @.str.93, i64 noundef %39) #23
  unreachable

40:                                               ; preds = %28
  %41 = load i64, ptr %10, align 8, !tbaa !11
  %42 = call i64 @rb_ary_entry(i64 noundef %41, i64 noundef 0) #25
  %43 = load ptr, ptr %7, align 8, !tbaa !16
  store i64 %42, ptr %43, align 8, !tbaa !11
  %44 = load i64, ptr %10, align 8, !tbaa !11
  %45 = call i64 @rb_ary_entry(i64 noundef %44, i64 noundef 1) #25
  %46 = load ptr, ptr %8, align 8, !tbaa !16
  store i64 %45, ptr %46, align 8, !tbaa !11
  store i32 0, ptr %11, align 4
  br label %47

47:                                               ; preds = %40, %22
  call void @llvm.lifetime.end.p0(i64 8, ptr %10) #22
  call void @llvm.lifetime.end.p0(i64 8, ptr %9) #22
  %48 = load i32, ptr %11, align 4
  switch i32 %48, label %50 [
    i32 0, label %49
    i32 1, label %49
  ]

49:                                               ; preds = %47, %47
  ret void

50:                                               ; preds = %47
  unreachable
}