; Function Attrs: nounwind sspstrong uwtable
define internal fastcc void @divmodv(i64 noundef %0, i64 noundef %1, ptr noundef nonnull writeonly captures(none) %2, ptr noundef nonnull writeonly captures(none) %3) unnamed_addr #1 {
  %5 = and i64 %1, 1
  %.not = icmp eq i64 %5, 0
  br i1 %.not, label %34, label %6

6:                                                ; preds = %4
  %7 = ashr i64 %1, 1
  %8 = icmp ult i64 %1, 2
  br i1 %8, label %9, label %10

9:                                                ; preds = %6
  tail call void @rb_num_zerodiv() #25
  unreachable

10:                                               ; preds = %6
  %11 = and i64 %0, 1
  %.not15 = icmp eq i64 %11, 0
  br i1 %.not15, label %34, label %12

12:                                               ; preds = %10
  %13 = ashr i64 %0, 1
  %14 = icmp eq i64 %13, -4611686018427387904
  %15 = icmp eq i64 %7, -1
  %or.cond.i = and i1 %14, %15
  br i1 %or.cond.i, label %16, label %18

16:                                               ; preds = %12
  %17 = tail call i64 @rb_int2big(i64 noundef 4611686018427387904) #21
  store i64 %17, ptr %2, align 8, !tbaa !11
  br label %rb_fix_divmod_fix.exit

18:                                               ; preds = %12
  %19 = sdiv i64 %13, %7
  %20 = srem i64 %13, %7
  %21 = icmp sgt i64 %7, 0
  br i1 %21, label %22, label %24

22:                                               ; preds = %18
  %23 = icmp slt i64 %20, 0
  br i1 %23, label %26, label %29

24:                                               ; preds = %18
  %25 = icmp sgt i64 %20, 0
  br i1 %25, label %26, label %29

26:                                               ; preds = %24, %22
  %27 = add nsw i64 %20, %7
  %28 = add nsw i64 %19, -1
  br label %29

29:                                               ; preds = %26, %24, %22
  %.024.i = phi i64 [ %28, %26 ], [ %19, %22 ], [ %19, %24 ]
  %.0.i = phi i64 [ %27, %26 ], [ %20, %22 ], [ %20, %24 ]
  %30 = shl i64 %.024.i, 1
  %31 = or disjoint i64 %30, 1
  store i64 %31, ptr %2, align 8, !tbaa !11
  %32 = shl i64 %.0.i, 1
  %33 = or disjoint i64 %32, 1
  br label %rb_fix_divmod_fix.exit

34:                                               ; preds = %10, %4
  %35 = tail call i64 (i64, i64, i32, ...) @rb_funcall(i64 noundef %0, i64 noundef 3585, i32 noundef 1, i64 noundef %1) #21
  %36 = tail call i64 @rb_check_array_type(i64 noundef %35) #21
  %37 = icmp eq i64 %36, 4
  br i1 %37, label %38, label %41

38:                                               ; preds = %34
  %39 = load i64, ptr @rb_eTypeError, align 8, !tbaa !11
  %40 = tail call i64 @rb_obj_class(i64 noundef %35) #21
  tail call void (i64, ptr, ...) @rb_raise(i64 noundef %39, ptr noundef nonnull @.str.93, i64 noundef %40) #22
  unreachable

41:                                               ; preds = %34
  %42 = tail call i64 @rb_ary_entry(i64 noundef %36, i64 noundef 0) #24
  store i64 %42, ptr %2, align 8, !tbaa !11
  %43 = tail call i64 @rb_ary_entry(i64 noundef %36, i64 noundef 1) #24
  br label %rb_fix_divmod_fix.exit

rb_fix_divmod_fix.exit:                           ; preds = %16, %29, %41
  %storemerge = phi i64 [ %43, %41 ], [ %33, %29 ], [ 1, %16 ]
  store i64 %storemerge, ptr %3, align 8, !tbaa !11
  ret void
}